---
triple:          'arm64-apple-darwin'
binary-path:     inverse_word_search
relocations:
  - { offset: 0xC79E, size: 0x8, addend: 0x0, symName: __ZStL8__ioinit, symObjAddr: 0x6C410, symBinAddr: 0x100008090, symSize: 0x0 }
  - { offset: 0xC8B0, size: 0x8, addend: 0x0, symName: _grid_width, symObjAddr: 0x6C40C, symBinAddr: 0x10000808C, symSize: 0x0 }
  - { offset: 0xC8C6, size: 0x8, addend: 0x0, symName: _grid_height, symObjAddr: 0x6C408, symBinAddr: 0x100008088, symSize: 0x0 }
  - { offset: 0xC9D0, size: 0x8, addend: 0x0, symName: __Z14required_wordsB5cxx11, symObjAddr: 0x6C3F0, symBinAddr: 0x100008070, symSize: 0x0 }
  - { offset: 0xCB03, size: 0x8, addend: 0x0, symName: __Z15forbidden_wordsB5cxx11, symObjAddr: 0x6C3B8, symBinAddr: 0x100008038, symSize: 0x0 }
  - { offset: 0xCC03, size: 0x8, addend: 0x0, symName: __Z9solutionsB5cxx11, symObjAddr: 0x6C3A0, symBinAddr: 0x100008020, symSize: 0x0 }
  - { offset: 0xCC19, size: 0x8, addend: 0x0, symName: _find_one_solution, symObjAddr: 0x6C398, symBinAddr: 0x100008018, symSize: 0x0 }
  - { offset: 0xCC2F, size: 0x8, addend: 0x0, symName: _max_forbidden_len, symObjAddr: 0x6C390, symBinAddr: 0x100008010, symSize: 0x0 }
  - { offset: 0xCC45, size: 0x8, addend: 0x0, symName: _min_forbidden_len, symObjAddr: 0x2898, symBinAddr: 0x100008000, symSize: 0x0 }
  - { offset: 0xCC6C, size: 0x8, addend: 0x0, symName: __ZL2dr, symObjAddr: 0x2874, symBinAddr: 0x100003660, symSize: 0x0 }
  - { offset: 0xCC82, size: 0x8, addend: 0x0, symName: __ZL2dc, symObjAddr: 0x2854, symBinAddr: 0x100003640, symSize: 0x0 }
  - { offset: 0xD0D7, size: 0x8, addend: 0x0, symName: __ZNSt6vectorIS_INSt7__cxx1112basic_stringIcSt11char_traitsIcESaIcEEESaIS5_EESaIS7_EED1Ev, symObjAddr: 0x144, symBinAddr: 0x100000CC4, symSize: 0xDC }
  - { offset: 0xD56B, size: 0x8, addend: 0x0, symName: __ZNSt3setINSt7__cxx1112basic_stringIcSt11char_traitsIcESaIcEEESt4lessIS5_ESaIS5_EED1Ev, symObjAddr: 0x520, symBinAddr: 0x1000010A0, symSize: 0x60 }
  - { offset: 0xED4C, size: 0x8, addend: 0x0, symName: __ZNSt6vectorIS_INSt7__cxx1112basic_stringIcSt11char_traitsIcESaIcEEESaIS5_EESaIS7_EE17_M_realloc_appendIJRKS7_EEEvDpOT_, symObjAddr: 0x1944, symBinAddr: 0x1000024C4, symSize: 0x348 }
  - { offset: 0xFCA1, size: 0x8, addend: 0x0, symName: __ZNSt8_Rb_treeINSt7__cxx1112basic_stringIcSt11char_traitsIcESaIcEEES5_St9_IdentityIS5_ESt4lessIS5_ESaIS5_EE16_M_insert_uniqueIRKS5_EESt4pairISt17_Rb_tree_iteratorIS5_EbEOT_, symObjAddr: 0xE84, symBinAddr: 0x100001A04, symSize: 0x284 }
  - { offset: 0x1072E, size: 0x8, addend: 0x0, symName: __ZNSt6vectorINSt7__cxx1112basic_stringIcSt11char_traitsIcESaIcEEESaIS5_EE17_M_realloc_appendIJRKS5_EEEvDpOT_, symObjAddr: 0xCC0, symBinAddr: 0x100001840, symSize: 0x1C4 }
  - { offset: 0x11BBC, size: 0x8, addend: 0x0, symName: __ZNSt6vectorINSt7__cxx1112basic_stringIcSt11char_traitsIcESaIcEEESaIS5_EED1Ev, symObjAddr: 0x220, symBinAddr: 0x100000DA0, symSize: 0x80 }
  - { offset: 0x11F4F, size: 0x8, addend: 0x0, symName: __ZSteqIcSt11char_traitsIcESaIcEEbRKNSt7__cxx1112basic_stringIT_T0_T1_EEPKS5_, symObjAddr: 0xC50, symBinAddr: 0x1000017D0, symSize: 0x70 }
  - { offset: 0x121B0, size: 0x8, addend: 0x0, symName: __Z9printGridRKSt6vectorINSt7__cxx1112basic_stringIcSt11char_traitsIcESaIcEEESaIS5_EERSo, symObjAddr: 0xBC0, symBinAddr: 0x100001740, symSize: 0x90 }
  - { offset: 0x12346, size: 0x8, addend: 0x0, symName: __Z14findWordInGridRKSt6vectorINSt7__cxx1112basic_stringIcSt11char_traitsIcESaIcEEESaIS5_EERKS5_, symObjAddr: 0x960, symBinAddr: 0x1000014E0, symSize: 0x164 }
  - { offset: 0x124E0, size: 0x8, addend: 0x0, symName: __Z14findWordInGridRKSt6vectorINSt7__cxx1112basic_stringIcSt11char_traitsIcESaIcEEESaIS5_EERKS5_, symObjAddr: 0x960, symBinAddr: 0x1000014E0, symSize: 0x164 }
  - { offset: 0x12504, size: 0x8, addend: 0x0, symName: __Z14findWordInGridRKSt6vectorINSt7__cxx1112basic_stringIcSt11char_traitsIcESaIcEEESaIS5_EERKS5_, symObjAddr: 0x960, symBinAddr: 0x1000014E0, symSize: 0x164 }
  - { offset: 0x1255D, size: 0x8, addend: 0x0, symName: __Z11isGridValidRKSt6vectorINSt7__cxx1112basic_stringIcSt11char_traitsIcESaIcEEESaIS5_EE, symObjAddr: 0xAC4, symBinAddr: 0x100001644, symSize: 0xFC }
  - { offset: 0x125A3, size: 0x8, addend: 0x0, symName: __Z14required_wordsB5cxx11, symObjAddr: 0x6C3F0, symBinAddr: 0x100008070, symSize: 0x0 }
  - { offset: 0x125C6, size: 0x8, addend: 0x0, symName: __Z11isGridValidRKSt6vectorINSt7__cxx1112basic_stringIcSt11char_traitsIcESaIcEEESaIS5_EE, symObjAddr: 0xAC4, symBinAddr: 0x100001644, symSize: 0xFC }
  - { offset: 0x125E5, size: 0x8, addend: 0x0, symName: __Z11isGridValidRKSt6vectorINSt7__cxx1112basic_stringIcSt11char_traitsIcESaIcEEESaIS5_EE, symObjAddr: 0xAC4, symBinAddr: 0x100001644, symSize: 0xFC }
  - { offset: 0x1289B, size: 0x8, addend: 0x0, symName: __Z26checkForbiddenWordEndingAtRKSt6vectorINSt7__cxx1112basic_stringIcSt11char_traitsIcESaIcEEESaIS5_EEii, symObjAddr: 0x580, symBinAddr: 0x100001100, symSize: 0x3E0 }
  - { offset: 0x13199, size: 0x8, addend: 0x0, symName: __Z13readInputFileRKNSt7__cxx1112basic_stringIcSt11char_traitsIcESaIcEEE, symObjAddr: 0x1108, symBinAddr: 0x100001C88, symSize: 0x83C }
  - { offset: 0x145F4, size: 0x8, addend: 0x0, symName: _main, symObjAddr: 0x2360, symBinAddr: 0x100002B80, symSize: 0x43C }
  - { offset: 0x1551A, size: 0x8, addend: 0x0, symName: __ZNKSt5ctypeIcE8do_widenEc, symObjAddr: 0x0, symBinAddr: 0x100000B80, symSize: 0x8 }
  - { offset: 0x15545, size: 0x8, addend: 0x0, symName: __ZNSt7__cxx1112basic_stringIcSt11char_traitsIcESaIcEEC1IS3_EEPKcRKS3_.isra.0, symObjAddr: 0x8, symBinAddr: 0x100000B88, symSize: 0xB8 }
  - { offset: 0x15837, size: 0x8, addend: 0x0, symName: __ZSt4endlIcSt11char_traitsIcEERSt13basic_ostreamIT_T0_ES6_.isra.0, symObjAddr: 0xC0, symBinAddr: 0x100000C40, symSize: 0x84 }
  - { offset: 0x15925, size: 0x8, addend: 0x0, symName: __ZNSt8_Rb_treeINSt7__cxx1112basic_stringIcSt11char_traitsIcESaIcEEES5_St9_IdentityIS5_ESt4lessIS5_ESaIS5_EE8_M_eraseEPSt13_Rb_tree_nodeIS5_E.isra.0, symObjAddr: 0x2A0, symBinAddr: 0x100000E20, symSize: 0x280 }
  - { offset: 0x17432, size: 0x8, addend: 0x0, symName: __Z5solveRSt6vectorINSt7__cxx1112basic_stringIcSt11char_traitsIcESaIcEEESaIS5_EEii, symObjAddr: 0x1C8C, symBinAddr: 0x10000280C, symSize: 0x2B4 }
  - { offset: 0x17673, size: 0x8, addend: 0x0, symName: __Z9solutionsB5cxx11, symObjAddr: 0x6C3A0, symBinAddr: 0x100008020, symSize: 0x0 }
...
